(lp0
S'We only part to meet again.'
p1
aS'Parting is all we know of heaven and all we need to know of hell. '
p2
aS'Why does it take a minute to say hello and forever to say goodbye?'
p3
aS'How lucky I am to have something that makes saying goodbye so hard.'
p4
aS"Why can't we get all the people together in the world that we really like and then just stay together? I guess that wouldn't work. Someone would leave. Someone always leaves. Then we would have to say good-bye. I hate good-byes. I know what I need. I need more hellos."
p5
aS'Absence from whom we love is worse than death, and frustrates hope severer than despair.'
p6
aS'May the road rise up to meet you, may the wind be ever at your back.  May the sun shine warm upon your face and the rain fall softly on your fields.  And until we meet again, may God hold you in the hollow of his hand.'
p7
aS'Happy trails to you, until we meet again.'
p8
aS'Be well, do good work, and keep in touch.'
p9
aS'Farewell! God knows when we shall meet again.'
p10
aS'But fate ordains that dearest friends must part.'
p11
aS'Where is the good in goodbye?'
p12
aS'Good-byes breed a sort of distaste for whomever you say good-bye to; this hurts, you feel, this must not happen again.'
p13
aS'May you always have work for your hands to do. May your pockets hold always a coin or two. May the sun shine bright on your windowpane. May the rainbow be certain to follow each rain. May the hand of a friend always be near you. And may God fill your heart with gladness to cheer you.'
p14
aS'May the sun shine, all day long,everything go right, and nothing wrong. May those you love bring love back to you, and may all the wishes you wish come true!'
p15
aS'May you always have walls for the winds, a roof for the rain, tea beside the fire, laughter to cheer you, those you love near you, and all your heart might desire.'
p16
aS'The return makes one love the farewell.'
p17
aS'If I had a single flower for every time I think about you, I could walk forever in my garden.'
p18
aS'Faithless is he that says farewell when the road darkens. '
p19
aS"May your days be many and your troubles be few. May all God's blessings descend upon you. May peace be within you may your heart be strong. May you find what you're seeking wherever you roam."
p20
aS'May the blessing of light be on you- light without and light within. May the blessed sunlight shine on you and warm your heart till it glows like a great peat fire.'
p21
aS'May you always have walls for the winds, a roof for the rain, tea beside the fire, laughter to cheer you, those you love near you, and all your heart might desire.'
p22
aS'May St. Patrick guard you wherever you go and guide you in whatever you do.'
p23
aS'May you have love that never ends, lots of money, and lots of friends. Health be yours, whatever you do, and may God send many blessings to you!'
p24
aS"May your feet never sweat, your neighbor give you ne're a treat. When flowers bloom, I hope you'll not sneeze, and may you always have someone to sqeeze!"
p25
aS"May you have the hindsight to know where you've been, the foresight to know where you're going, and the insight to know when you're going too far."
p26
aS'May you have warm words on a cold evening, a full moon on a dark night, and the road downhill all the way to your door.'
p27
aS'May the good saints protect you, and bless you today. May troubles ignore you, each step of the way.'
p28
aS'May good luck be your friend in whatever you do, and may trouble be always a stranger to you.'
p29
aS'May you live to be a hundred years, with one extra year to repent.'
p30
aS'As you slide down the banisters of life may the splinters never point the wrong way.'
p31
aS'May your troubles be as few and as far apart as my Grandmothers teeth.'
p32
aS'Sometimes, when one person is absent, the whole world seems depopulated'
p33
aS'Every parting is a form of death, as every reunion is a type of heaven.'
p34
aS'Goodbyes are not forever.'
p35
aS"Man's feelings are always purest and most glowing in the hour of meeting and of farewell."
p36
aS"Remember me and smile, for it's better to forget than remember me and cry."
p37
aS'Excuse me, then! you know my heart; but dearest friend, alas! we must part.'
p38
a.
