(lp0
S"A summer's catch for a toad= 10,000 insects"
p1
aS'Male Emperor Penguins survive 2 months without any food to protect and warm a single egg'
p2
aS"Roman coins have been dug up in America suggesting that perhaps the Vikings of Columbus weren't the first Europeans here"
p3
aS'The first food grown in outer space was potatoes in 1995 aboard the space shuttle columbia'
p4
aS'French was the official language of England for over 600 years'
p5
aS'Dandelion root can be roasted and ground as a coffee substitute'
p6
aS'Clinaphobia is the fear of going to bed'
p7
aS'Lemon sharks grow a new set of teeth every week'
p8
aS'50% of pizzas in North America are sold with pepperoni on them'
p9
aS'The average person speaks about 5,000 words a day'
p10
aS"A giant squid's eye is as big as a basketball"
p11
aS'Ice Hockey was first played by British soldiers stationed in Canada'
p12
aS"Honey is the only food that doesn't spoil"
p13
aS'Hippopotomonstrosesquippedaliiophobia is the fear of long words'
p14
aS"Gelatin (the stuff in jello and jelly) is made from animal's hides and bones"
p15
aS'When your stomach rumbles or growls it is "wambling"'
p16
aS'The average bed is home to over 5 billion dust mites'
p17
aS'Ancient Rome was the very first city to reach a population of one million'
p18
aS'A stalk of celery has "negative calories" digesting it takes more energy than it provides'
p19
aS'Logizomechanophobia is the fear of computers'
p20
aS'The Mona Lisa has no eyebrows'
p21
aS'Lubberwort is food of no nutritional value; junk food'
p22
aS'Snow leopards cannot roar'
p23
aS'Tug-of-war was an official olympic event until 1920'
p24
aS'Seaweed can be used to thicken icecream'
p25
aS'The word clip means both "fasten" and the very opposite "detach"'
p26
aS'Female Grizzly Bears sleep through giving birth during hibernation'
p27
aS"The Continent of Antarctica wasn't discovered until 1820"
p28
aS'Women end up ingesting most of the lipstick they apply'
p29
aS'A group of crows is know as a "murder" of crows'
p30
aS'Toilet paper was first marketed in the US in the 1880s'
p31
aS'People who have eaten ants say they taste like salt and vinegar chips'
p32
aS'The hole in your shirt that you put your arm through is an "armsaye"'
p33
aS'Queen Honeybees will lay up to 3,000 eggs a day'
p34
aS'The US supreme court ruled the difference between fruits and vegetables in 1893'
p35
aS'It is said to be impossible to lick your elbow (and over 75% of people who read this will try to lick their elbow)'
p36
aS''
p37
aS'President Kennedy was the fastest random speaker in the world with upwards of 350 words per minute.'
p38
aS'In the average lifetime, a person will walk the equivalent of 5 times around the equator.'
p39
aS'Odontophobia is the fear of teeth.'
p40
aS'The 57 on Heinz ketchup bottles represents the number of varieties of pickles the company once had.'
p41
aS'In the early days of the telephone, operators would pick up a call and use the phrase, "Well, are you there?". It wasn\'t until 1895 that someone suggested answering the phone with the phrase "number please?"'
p42
aS'The surface area of an average-sized brick is 79 cm squared.'
p43
aS'According to suicide statistics, Monday is the favored day for self-destruction.'
p44
aS'The most common name in the world is Mohammed.'
p45
aS'It is believed that Shakespeare was 46 around the time that the King James Version of the Bible was written. In Psalms 46, the 46th word from the first word is shake and the 46th word from the last word is spear.'
p46
aS'Karoke means "empty orchestra" in Japanese.'
p47
aS'The Eisenhower interstate system requires that one mile in every five must be straight. These straight sections are usable as airstrips in times of war or other emergencies.'
p48
aS'The first known contraceptive was crocodile dung, used by Egyptians in 2000 B.C.'
p49
aS'Rhode Island is the smallest state with the longest name. The official name, used on all state documents, is "Rhode Island and Providence Plantations."'
p50
aS'When you die your hair still grows for a couple of months.'
p51
aS'There are two credit cards for every person in the United States.'
p52
aS'Isaac Asimov is the only author to have a book in every Dewey-decimal category.'
p53
aS'The newspaper serving Frostbite Falls, Minnesota, the home of Rocky and Bullwinkle, is the Picayune Intellegence.'
p54
aS'It would take 11 Empire State Buildings, stacked one on top of the other, to measure the Gulf of Mexico at its deepest point.'
p55
aS'The most money ever paid for a cow in an auction was $1.3 million.'
p56
aS"The Neanderthal's brain was bigger than yours is."
p57
aS'On the new hundred dollar bill the time on the clock tower of Independence Hall is 4:10.'
p58
aS'Each of the suits on a deck of cards represents the four major pillars of the economy in the middle ages: heart represented the Church, spades represented the military, clubs represented agriculture, and diamonds represented the merchant class.'
p59
aS'The names of the two stone lions in front of the New York Public Library are Patience and Fortitude. They were named by then-mayor Fiorello LaGuardia.'
p60
aS'The Main Library at Indiana University sinks over an inch every year because when it was built, engineers failed to take into account the weight of all the books that would occupy the building.'
p61
aS'The sound of E.T. walking was made by someone squishing her hands in jelly.'
p62
aS'The pancreas produces Insulin.'
p63
aS'1 in 5,000 north Atlantic lobsters are born bright blue.'
p64
aS'There are 10 human body parts that are only 3 letters long (eye hip arm leg ear toe jaw rib lip gum).'
p65
aS"A skunk's smell can be detected by a human a mile away."
p66
aS'The word "lethologica" describes the state of not being able to remember the word you want.'
p67
aS'The king of hearts is the only king without a moustache.'
p68
aS'Henry Ford produced the model T only in black because the black paint available at the time was the fastest to dry.'
p69
aS"Mario, of Super Mario Bros. fame, appeared in the 1981 arcade game, Donkey Kong. His original name was Jumpman, but was changed to Mario to honor the Nintendo of America's landlord, Mario Segali."
p70
aS'The three best-known western names in China: Jesus Christ, Richard Nixon, and Elvis Presley.'
p71
aS'Every year about 98% of the atoms in your body are replaced.'
p72
aS"Elephants are the only mammals that can't jump."
p73
aS'The international telephone dialing code for Antarctica is 672.'
p74
aS'World Tourist day is observed on September 27.'
p75
aS'Women are 37% more likely to go to a psychiatrist than men are.'
p76
aS'The human heart creates enough pressure to squirt blood 30 feet (9 m).'
p77
aS'Diet Coke was only invented in 1982.'
p78
aS'There are more than 1,700 references to gems and precious stones in the King James translation of the Bible.'
p79
aS'When snakes are born with two heads, they fight each other for food.'
p80
aS'American car horns beep in the tone of F.'
p81
aS'0.99999999... == 1 (really)'
p82
aS'900 World War II vetrans die each day'
p83
a.